; Function Attrs: nounwind uwtable
define internal ptr @namespace_new(ptr noundef %0, ptr readnone captures(none) %1, ptr readnone captures(none) %2) #0 {
  %4 = getelementptr inbounds nuw i8, ptr %0, i64 304
  %5 = load ptr, ptr %4, align 8, !tbaa !32
  %6 = tail call ptr %5(ptr noundef %0, i64 noundef 0) #3
  %.not = icmp eq ptr %6, null
  br i1 %.not, label %.critedge, label %7

7:                                                ; preds = %3
  %8 = tail call ptr @PyDict_New() #3
  %9 = getelementptr inbounds nuw i8, ptr %6, i64 16
  store ptr %8, ptr %9, align 8, !tbaa !24
  %.not11 = icmp eq ptr %8, null
  br i1 %.not11, label %10, label %.critedge

10:                                               ; preds = %7
  %11 = load i32, ptr %6, align 8, !tbaa !9
  %.not.i = icmp sgt i32 %11, -1
  br i1 %.not.i, label %12, label %.critedge

12:                                               ; preds = %10
  %13 = add nsw i32 %11, -1
  store i32 %13, ptr %6, align 8, !tbaa !9
  %14 = icmp eq i32 %13, 0
  br i1 %14, label %15, label %.critedge

15:                                               ; preds = %12
  tail call void @_Py_Dealloc(ptr noundef nonnull %6) #3
  br label %.critedge

.critedge:                                        ; preds = %15, %12, %10, %3, %7
  %.1 = phi ptr [ %6, %7 ], [ null, %3 ], [ null, %10 ], [ null, %12 ], [ null, %15 ]
  ret ptr %.1
}